target datalayout = "e-m:e-p270:32:32-p271:32:32-p272:64:64-i64:64-i128:128-f80:128-n8:16:32:64-S128"
target triple = "x86_64-pc-linux-gnu"

%struct.ExpandedObjectMethods = type { ptr, ptr }
%struct.TupleDescData = type { i32, i32, i32, i32, ptr, [0 x %struct.CompactAttribute] }
%struct.CompactAttribute = type { i32, i16, i8, i8, i8, i8, i8, i8, i8 }
%struct.ExpandedRecordHeader = type { %struct.ExpandedObjectHeader, i32, i32, i32, i32, i32, ptr, i64, ptr, ptr, i32, i64, i64, i32, i8, ptr, ptr, ptr, ptr, ptr, ptr, %struct.MemoryContextCallback }
%struct.ExpandedObjectHeader = type { i32, ptr, ptr, [10 x i8], [10 x i8] }
%struct.MemoryContextCallback = type { ptr, ptr, ptr }

@ER_methods = internal constant %struct.ExpandedObjectMethods { ptr @ER_get_flat_size, ptr @ER_flatten_into }, align 8
@.str.4 = private unnamed_addr constant [35 x i8] c"expanded record short-term context\00", align 1

; Function Attrs: nounwind uwtable
define internal ptr @get_short_term_cxt(ptr noundef %0) #0 {
  %2 = alloca ptr, align 8
  %3 = alloca i32, align 4
  store ptr %0, ptr %2, align 8
  %4 = load ptr, ptr %2, align 8
  %5 = getelementptr inbounds nuw %struct.ExpandedRecordHeader, ptr %4, i32 0, i32 18
  %6 = load ptr, ptr %5, align 8
  %7 = icmp eq ptr %6, null
  br i1 %7, label %8, label %18

8:                                                ; preds = %1
  br label %9

9:                                                ; preds = %8
  br label %10

10:                                               ; preds = %9
  store i32 1, ptr %3, align 4
  %11 = load ptr, ptr %2, align 8
  %12 = getelementptr inbounds nuw %struct.ExpandedRecordHeader, ptr %11, i32 0, i32 0
  %13 = getelementptr inbounds nuw %struct.ExpandedObjectHeader, ptr %12, i32 0, i32 2
  %14 = load ptr, ptr %13, align 8
  %15 = call ptr @AllocSetContextCreateInternal(ptr noundef %14, ptr noundef @.str.4, i64 noundef 0, i64 noundef 1024, i64 noundef 8192)
  %16 = load ptr, ptr %2, align 8
  %17 = getelementptr inbounds nuw %struct.ExpandedRecordHeader, ptr %16, i32 0, i32 18
  store ptr %15, ptr %17, align 8
  br label %22

18:                                               ; preds = %1
  %19 = load ptr, ptr %2, align 8
  %20 = getelementptr inbounds nuw %struct.ExpandedRecordHeader, ptr %19, i32 0, i32 18
  %21 = load ptr, ptr %20, align 8
  call void @MemoryContextReset(ptr noundef %21)
  br label %22

22:                                               ; preds = %18, %10
  %23 = load ptr, ptr %2, align 8
  %24 = getelementptr inbounds nuw %struct.ExpandedRecordHeader, ptr %23, i32 0, i32 18
  %25 = load ptr, ptr %24, align 8
  ret ptr %25
}

; Function Attrs: inlinehint nounwind uwtable
define internal ptr @expanded_record_get_tupdesc(ptr noundef %0) #5 {
  %2 = alloca ptr, align 8
  %3 = alloca ptr, align 8
  store ptr %0, ptr %3, align 8
  %4 = load ptr, ptr %3, align 8
  %5 = getelementptr inbounds nuw %struct.ExpandedRecordHeader, ptr %4, i32 0, i32 6
  %6 = load ptr, ptr %5, align 8
  %7 = icmp ne ptr %6, null
  %8 = zext i1 %7 to i32
  %9 = icmp ne i32 %8, 0
  %10 = zext i1 %9 to i32
  %11 = sext i32 %10 to i64
  %12 = call i64 @llvm.expect.i64(i64 %11, i64 1)
  %13 = icmp ne i64 %12, 0
  br i1 %13, label %14, label %18

14:                                               ; preds = %1
  %15 = load ptr, ptr %3, align 8
  %16 = getelementptr inbounds nuw %struct.ExpandedRecordHeader, ptr %15, i32 0, i32 6
  %17 = load ptr, ptr %16, align 8
  store ptr %17, ptr %2, align 8
  br label %21

18:                                               ; preds = %1
  %19 = load ptr, ptr %3, align 8
  %20 = call ptr @expanded_record_fetch_tupdesc(ptr noundef %19)
  store ptr %20, ptr %2, align 8
  br label %21

21:                                               ; preds = %18, %14
  %22 = load ptr, ptr %2, align 8
  ret ptr %22
}

; Function Attrs: nounwind uwtable
define internal void @build_dummy_expanded_header(ptr noundef %0) #0 {
  %2 = alloca ptr, align 8
  %3 = alloca ptr, align 8
  %4 = alloca ptr, align 8
  %5 = alloca ptr, align 8
  store ptr %0, ptr %2, align 8
  call void @llvm.lifetime.start.p0(i64 8, ptr %3) #9
  call void @llvm.lifetime.start.p0(i64 8, ptr %4) #9
  %6 = load ptr, ptr %2, align 8
  %7 = call ptr @expanded_record_get_tupdesc(ptr noundef %6)
  store ptr %7, ptr %4, align 8
  %8 = load ptr, ptr %2, align 8
  %9 = call ptr @get_short_term_cxt(ptr noundef %8)
  %10 = load ptr, ptr %2, align 8
  %11 = getelementptr inbounds nuw %struct.ExpandedRecordHeader, ptr %10, i32 0, i32 19
  %12 = load ptr, ptr %11, align 8
  store ptr %12, ptr %3, align 8
  %13 = load ptr, ptr %3, align 8
  %14 = icmp eq ptr %13, null
  br i1 %14, label %23, label %15

15:                                               ; preds = %1
  %16 = load ptr, ptr %3, align 8
  %17 = getelementptr inbounds nuw %struct.ExpandedRecordHeader, ptr %16, i32 0, i32 10
  %18 = load i32, ptr %17, align 8
  %19 = load ptr, ptr %4, align 8
  %20 = getelementptr inbounds nuw %struct.TupleDescData, ptr %19, i32 0, i32 0
  %21 = load i32, ptr %20, align 8
  %22 = icmp ne i32 %18, %21
  br i1 %22, label %23, label %65

23:                                               ; preds = %15, %1
  call void @llvm.lifetime.start.p0(i64 8, ptr %5) #9
  %24 = load ptr, ptr %2, align 8
  %25 = getelementptr inbounds nuw %struct.ExpandedRecordHeader, ptr %24, i32 0, i32 0
  %26 = getelementptr inbounds nuw %struct.ExpandedObjectHeader, ptr %25, i32 0, i32 2
  %27 = load ptr, ptr %26, align 8
  %28 = load ptr, ptr %4, align 8
  %29 = getelementptr inbounds nuw %struct.TupleDescData, ptr %28, i32 0, i32 0
  %30 = load i32, ptr %29, align 8
  %31 = sext i32 %30 to i64
  %32 = mul i64 %31, 9
  %33 = add i64 208, %32
  %34 = call ptr @MemoryContextAlloc(ptr noundef %27, i64 noundef %33)
  store ptr %34, ptr %3, align 8
  %35 = load ptr, ptr %3, align 8
  call void @llvm.memset.p0.i64(ptr align 8 %35, i8 0, i64 208, i1 false)
  %36 = load ptr, ptr %3, align 8
  %37 = getelementptr inbounds nuw %struct.ExpandedRecordHeader, ptr %36, i32 0, i32 0
  %38 = load ptr, ptr %2, align 8
  %39 = getelementptr inbounds nuw %struct.ExpandedRecordHeader, ptr %38, i32 0, i32 18
  %40 = load ptr, ptr %39, align 8
  call void @EOH_init_header(ptr noundef %37, ptr noundef @ER_methods, ptr noundef %40)
  %41 = load ptr, ptr %3, align 8
  %42 = getelementptr inbounds nuw %struct.ExpandedRecordHeader, ptr %41, i32 0, i32 1
  store i32 1384727874, ptr %42, align 8
  %43 = load ptr, ptr %3, align 8
  %44 = getelementptr inbounds nuw i8, ptr %43, i64 208
  store ptr %44, ptr %5, align 8
  %45 = load ptr, ptr %5, align 8
  %46 = load ptr, ptr %3, align 8
  %47 = getelementptr inbounds nuw %struct.ExpandedRecordHeader, ptr %46, i32 0, i32 8
  store ptr %45, ptr %47, align 8
  %48 = load ptr, ptr %5, align 8
  %49 = load ptr, ptr %4, align 8
  %50 = getelementptr inbounds nuw %struct.TupleDescData, ptr %49, i32 0, i32 0
  %51 = load i32, ptr %50, align 8
  %52 = sext i32 %51 to i64
  %53 = mul i64 %52, 8
  %54 = getelementptr inbounds nuw i8, ptr %48, i64 %53
  %55 = load ptr, ptr %3, align 8
  %56 = getelementptr inbounds nuw %struct.ExpandedRecordHeader, ptr %55, i32 0, i32 9
  store ptr %54, ptr %56, align 8
  %57 = load ptr, ptr %4, align 8
  %58 = getelementptr inbounds nuw %struct.TupleDescData, ptr %57, i32 0, i32 0
  %59 = load i32, ptr %58, align 8
  %60 = load ptr, ptr %3, align 8
  %61 = getelementptr inbounds nuw %struct.ExpandedRecordHeader, ptr %60, i32 0, i32 10
  store i32 %59, ptr %61, align 8
  %62 = load ptr, ptr %3, align 8
  %63 = load ptr, ptr %2, align 8
  %64 = getelementptr inbounds nuw %struct.ExpandedRecordHeader, ptr %63, i32 0, i32 19
  store ptr %62, ptr %64, align 8
  call void @llvm.lifetime.end.p0(i64 8, ptr %5) #9
  br label %65

65:                                               ; preds = %23, %15
  %66 = load ptr, ptr %3, align 8
  %67 = getelementptr inbounds nuw %struct.ExpandedRecordHeader, ptr %66, i32 0, i32 2
  store i32 128, ptr %67, align 4
  %68 = load ptr, ptr %2, align 8
  %69 = getelementptr inbounds nuw %struct.ExpandedRecordHeader, ptr %68, i32 0, i32 4
  %70 = load i32, ptr %69, align 4
  %71 = load ptr, ptr %3, align 8
  %72 = getelementptr inbounds nuw %struct.ExpandedRecordHeader, ptr %71, i32 0, i32 4
  store i32 %70, ptr %72, align 4
  %73 = load ptr, ptr %3, align 8
  %74 = getelementptr inbounds nuw %struct.ExpandedRecordHeader, ptr %73, i32 0, i32 3
  store i32 %70, ptr %74, align 8
  %75 = load ptr, ptr %2, align 8
  %76 = getelementptr inbounds nuw %struct.ExpandedRecordHeader, ptr %75, i32 0, i32 5
  %77 = load i32, ptr %76, align 8
  %78 = load ptr, ptr %3, align 8
  %79 = getelementptr inbounds nuw %struct.ExpandedRecordHeader, ptr %78, i32 0, i32 5
  store i32 %77, ptr %79, align 8
  %80 = load ptr, ptr %4, align 8
  %81 = load ptr, ptr %3, align 8
  %82 = getelementptr inbounds nuw %struct.ExpandedRecordHeader, ptr %81, i32 0, i32 6
  store ptr %80, ptr %82, align 8
  %83 = load ptr, ptr %2, align 8
  %84 = getelementptr inbounds nuw %struct.ExpandedRecordHeader, ptr %83, i32 0, i32 7
  %85 = load i64, ptr %84, align 8
  %86 = load ptr, ptr %3, align 8
  %87 = getelementptr inbounds nuw %struct.ExpandedRecordHeader, ptr %86, i32 0, i32 7
  store i64 %85, ptr %87, align 8
  %88 = load ptr, ptr %3, align 8
  %89 = getelementptr inbounds nuw %struct.ExpandedRecordHeader, ptr %88, i32 0, i32 11
  store i64 0, ptr %89, align 8
  %90 = load ptr, ptr %2, align 8
  %91 = getelementptr inbounds nuw %struct.ExpandedRecordHeader, ptr %90, i32 0, i32 15
  %92 = load ptr, ptr %91, align 8
  %93 = load ptr, ptr %3, align 8
  %94 = getelementptr inbounds nuw %struct.ExpandedRecordHeader, ptr %93, i32 0, i32 15
  store ptr %92, ptr %94, align 8
  %95 = load ptr, ptr %2, align 8
  %96 = getelementptr inbounds nuw %struct.ExpandedRecordHeader, ptr %95, i32 0, i32 16
  %97 = load ptr, ptr %96, align 8
  %98 = load ptr, ptr %3, align 8
  %99 = getelementptr inbounds nuw %struct.ExpandedRecordHeader, ptr %98, i32 0, i32 16
  store ptr %97, ptr %99, align 8
  %100 = load ptr, ptr %2, align 8
  %101 = getelementptr inbounds nuw %struct.ExpandedRecordHeader, ptr %100, i32 0, i32 17
  %102 = load ptr, ptr %101, align 8
  %103 = load ptr, ptr %3, align 8
  %104 = getelementptr inbounds nuw %struct.ExpandedRecordHeader, ptr %103, i32 0, i32 17
  store ptr %102, ptr %104, align 8
  call void @llvm.lifetime.end.p0(i64 8, ptr %4) #9
  call void @llvm.lifetime.end.p0(i64 8, ptr %3) #9
  ret void
}