; Function Attrs: nounwind uwtable
define internal fastcc void @build_dummy_expanded_header(ptr noundef %0) unnamed_addr #0 {
  %2 = getelementptr inbounds nuw i8, ptr %0, i64 72
  %3 = load ptr, ptr %2, align 8
  %.not.i = icmp eq ptr %3, null
  br i1 %.not.i, label %4, label %expanded_record_get_tupdesc.exit, !prof !4

4:                                                ; preds = %1
  %5 = tail call ptr @expanded_record_fetch_tupdesc(ptr noundef nonnull %0)
  br label %expanded_record_get_tupdesc.exit

expanded_record_get_tupdesc.exit:                 ; preds = %1, %4
  %.0.i = phi ptr [ %5, %4 ], [ %3, %1 ]
  %6 = getelementptr inbounds nuw i8, ptr %0, i64 160
  %7 = load ptr, ptr %6, align 8
  %8 = icmp eq ptr %7, null
  br i1 %8, label %9, label %13

9:                                                ; preds = %expanded_record_get_tupdesc.exit
  %10 = getelementptr inbounds nuw i8, ptr %0, i64 16
  %11 = load ptr, ptr %10, align 8
  %12 = tail call ptr @AllocSetContextCreateInternal(ptr noundef %11, ptr noundef nonnull @.str.4, i64 noundef 0, i64 noundef 1024, i64 noundef 8192) #8
  store ptr %12, ptr %6, align 8
  br label %get_short_term_cxt.exit

13:                                               ; preds = %expanded_record_get_tupdesc.exit
  tail call void @MemoryContextReset(ptr noundef nonnull %7) #8
  br label %get_short_term_cxt.exit

get_short_term_cxt.exit:                          ; preds = %9, %13
  %14 = getelementptr inbounds nuw i8, ptr %0, i64 168
  %15 = load ptr, ptr %14, align 8
  %16 = icmp eq ptr %15, null
  %.pre = load i32, ptr %.0.i, align 8
  br i1 %16, label %20, label %17

17:                                               ; preds = %get_short_term_cxt.exit
  %18 = getelementptr inbounds nuw i8, ptr %15, i64 104
  %19 = load i32, ptr %18, align 8
  %.not = icmp eq i32 %19, %.pre
  br i1 %.not, label %38, label %20

20:                                               ; preds = %17, %get_short_term_cxt.exit
  %21 = getelementptr inbounds nuw i8, ptr %0, i64 16
  %22 = load ptr, ptr %21, align 8
  %23 = sext i32 %.pre to i64
  %24 = mul nsw i64 %23, 9
  %25 = add nsw i64 %24, 208
  %26 = tail call ptr @MemoryContextAlloc(ptr noundef %22, i64 noundef %25) #8
  tail call void @llvm.memset.p0.i64(ptr noundef nonnull align 8 dereferenceable(208) %26, i8 0, i64 208, i1 false)
  %27 = load ptr, ptr %6, align 8
  tail call void @EOH_init_header(ptr noundef nonnull %26, ptr noundef nonnull @ER_methods, ptr noundef %27) #8
  %28 = getelementptr inbounds nuw i8, ptr %26, i64 48
  store i32 1384727874, ptr %28, align 8
  %29 = getelementptr inbounds nuw i8, ptr %26, i64 208
  %30 = getelementptr inbounds nuw i8, ptr %26, i64 88
  store ptr %29, ptr %30, align 8
  %31 = load i32, ptr %.0.i, align 8
  %32 = sext i32 %31 to i64
  %33 = shl nsw i64 %32, 3
  %34 = getelementptr inbounds nuw i8, ptr %29, i64 %33
  %35 = getelementptr inbounds nuw i8, ptr %26, i64 96
  store ptr %34, ptr %35, align 8
  %36 = load i32, ptr %.0.i, align 8
  %37 = getelementptr inbounds nuw i8, ptr %26, i64 104
  store i32 %36, ptr %37, align 8
  store ptr %26, ptr %14, align 8
  br label %38

38:                                               ; preds = %20, %17
  %.0 = phi ptr [ %26, %20 ], [ %15, %17 ]
  %39 = getelementptr inbounds nuw i8, ptr %.0, i64 52
  store i32 128, ptr %39, align 4
  %40 = getelementptr inbounds nuw i8, ptr %0, i64 60
  %41 = load i32, ptr %40, align 4
  %42 = getelementptr inbounds nuw i8, ptr %.0, i64 60
  store i32 %41, ptr %42, align 4
  %43 = getelementptr inbounds nuw i8, ptr %.0, i64 56
  store i32 %41, ptr %43, align 8
  %44 = getelementptr inbounds nuw i8, ptr %0, i64 64
  %45 = load i32, ptr %44, align 8
  %46 = getelementptr inbounds nuw i8, ptr %.0, i64 64
  store i32 %45, ptr %46, align 8
  %47 = getelementptr inbounds nuw i8, ptr %.0, i64 72
  store ptr %.0.i, ptr %47, align 8
  %48 = getelementptr inbounds nuw i8, ptr %0, i64 80
  %49 = load i64, ptr %48, align 8
  %50 = getelementptr inbounds nuw i8, ptr %.0, i64 80
  store i64 %49, ptr %50, align 8
  %51 = getelementptr inbounds nuw i8, ptr %.0, i64 112
  store i64 0, ptr %51, align 8
  %52 = getelementptr inbounds nuw i8, ptr %0, i64 136
  %53 = load ptr, ptr %52, align 8
  %54 = getelementptr inbounds nuw i8, ptr %.0, i64 136
  store ptr %53, ptr %54, align 8
  %55 = getelementptr inbounds nuw i8, ptr %0, i64 144
  %56 = load ptr, ptr %55, align 8
  %57 = getelementptr inbounds nuw i8, ptr %.0, i64 144
  store ptr %56, ptr %57, align 8
  %58 = getelementptr inbounds nuw i8, ptr %0, i64 152
  %59 = load ptr, ptr %58, align 8
  %60 = getelementptr inbounds nuw i8, ptr %.0, i64 152
  store ptr %59, ptr %60, align 8
  ret void
}